#include <math.h>
#include <stdio.h>
#include <stdlib.h>
#include <string.h>

int main()
{
double n,a;
scanf("%lf",&n);
a=pow(2.0,n);
printf("%.0lf",a);
return 0;
}
